target datalayout = "e-m:e-p270:32:32-p271:32:32-p272:64:64-i64:64-i128:128-f80:128-n8:16:32:64-S128"
target triple = "x86_64-pc-linux-gnu"

%struct.addrinfo = type { i32, i32, i32, i32, i32, ptr, ptr, ptr }

; Function Attrs: nounwind uwtable
define zeroext i1 @pmix_net_isaddr(ptr noundef %0) #0 {
  %2 = alloca i1, align 1
  %3 = alloca ptr, align 8
  %4 = alloca %struct.addrinfo, align 8
  %5 = alloca ptr, align 8
  %6 = alloca i32, align 4
  store ptr %0, ptr %3, align 8, !tbaa !3
  call void @llvm.lifetime.start.p0(i64 48, ptr %4) #10
  call void @llvm.lifetime.start.p0(i64 8, ptr %5) #10
  store ptr null, ptr %5, align 8, !tbaa !8
  call void @llvm.memset.p0.i64(ptr align 8 %4, i8 0, i64 48, i1 false)
  %7 = getelementptr inbounds nuw %struct.addrinfo, ptr %4, i32 0, i32 1
  store i32 0, ptr %7, align 4, !tbaa !10
  %8 = getelementptr inbounds nuw %struct.addrinfo, ptr %4, i32 0, i32 0
  store i32 4, ptr %8, align 8, !tbaa !14
  %9 = load ptr, ptr %3, align 8, !tbaa !3
  %10 = call i32 @getaddrinfo(ptr noundef %9, ptr noundef null, ptr noundef %4, ptr noundef %5)
  %11 = icmp ne i32 0, %10
  br i1 %11, label %12, label %13

12:                                               ; preds = %1
  store i1 false, ptr %2, align 1
  store i32 1, ptr %6, align 4
  br label %15

13:                                               ; preds = %1
  %14 = load ptr, ptr %5, align 8, !tbaa !8
  call void @freeaddrinfo(ptr noundef %14) #10
  store i1 true, ptr %2, align 1
  store i32 1, ptr %6, align 4
  br label %15

15:                                               ; preds = %13, %12
  call void @llvm.lifetime.end.p0(i64 8, ptr %5) #10
  call void @llvm.lifetime.end.p0(i64 48, ptr %4) #10
  %16 = load i1, ptr %2, align 1
  ret i1 %16
}