; Function Attrs: nounwind uwtable
define noundef zeroext i1 @pmix_net_isaddr(ptr noundef %0) local_unnamed_addr #0 {
  %2 = alloca %struct.addrinfo, align 8
  %3 = alloca ptr, align 8
  call void @llvm.lifetime.start.p0(i64 48, ptr nonnull %2) #15
  call void @llvm.lifetime.start.p0(i64 8, ptr nonnull %3) #15
  store ptr null, ptr %3, align 8, !tbaa !3
  call void @llvm.memset.p0.i64(ptr noundef nonnull align 8 dereferenceable(48) %2, i8 0, i64 48, i1 false)
  store i32 4, ptr %2, align 8, !tbaa !8
  %4 = call i32 @getaddrinfo(ptr noundef %0, ptr noundef null, ptr noundef nonnull %2, ptr noundef nonnull %3) #15
  %.not = icmp eq i32 %4, 0
  br i1 %.not, label %5, label %7

5:                                                ; preds = %1
  %6 = load ptr, ptr %3, align 8, !tbaa !3
  call void @freeaddrinfo(ptr noundef %6) #15
  br label %7

7:                                                ; preds = %1, %5
  call void @llvm.lifetime.end.p0(i64 8, ptr nonnull %3) #15
  call void @llvm.lifetime.end.p0(i64 48, ptr nonnull %2) #15
  ret i1 %.not
}